; Function Attrs: nounwind sspstrong uwtable
define internal i64 @dt_lite_jisx0301(i32 noundef %0, ptr noundef readonly captures(none) %1, i64 noundef %2) #0 {
  %or.cond.i = icmp ugt i32 %0, 1
  br i1 %or.cond.i, label %4, label %rb_check_arity.exit

4:                                                ; preds = %3
  tail call void @rb_error_arity(i32 noundef %0, i32 noundef 0, i32 noundef 1) #22
  unreachable

rb_check_arity.exit:                              ; preds = %3
  %5 = icmp eq i32 %0, 1
  br i1 %5, label %6, label %rb_num2long_inline.exit

6:                                                ; preds = %rb_check_arity.exit
  %7 = load i64, ptr %1, align 8, !tbaa !6
  %8 = and i64 %7, 1
  %.not.i = icmp eq i64 %8, 0
  br i1 %.not.i, label %11, label %9

9:                                                ; preds = %6
  %10 = ashr i64 %7, 1
  br label %rb_num2long_inline.exit

11:                                               ; preds = %6
  %12 = tail call i64 @rb_num2long(i64 noundef %7) #21
  br label %rb_num2long_inline.exit

rb_num2long_inline.exit:                          ; preds = %11, %9, %rb_check_arity.exit
  %.0 = phi i64 [ 0, %rb_check_arity.exit ], [ %10, %9 ], [ %12, %11 ]
  %13 = tail call i64 @d_lite_jisx0301(i64 noundef %2)
  %14 = tail call fastcc i64 @iso8601_timediv(i64 noundef %2, i64 noundef %.0)
  %15 = tail call i64 @rb_str_append(i64 noundef %13, i64 noundef %14) #21
  ret i64 %15
}